target datalayout = "e-m:e-p270:32:32-p271:32:32-p272:64:64-i64:64-i128:128-f80:128-n8:16:32:64-S128"
target triple = "x86_64-pc-linux-gnu"

%struct.hwloc_infos_s = type { ptr, i32, i32 }
%struct.hwloc_obj = type { i32, ptr, i32, ptr, i64, ptr, i32, i32, ptr, ptr, ptr, i32, ptr, ptr, i32, ptr, ptr, ptr, i32, i32, ptr, i32, ptr, i32, ptr, ptr, ptr, ptr, ptr, %struct.hwloc_infos_s, ptr, i64 }
%struct.hwloc_utils_userdata = type { ptr, i64, ptr, ptr }
%struct.hwloc_location = type { i32, %union.hwloc_location_u }
%union.hwloc_location_u = type { ptr }
%struct.hwloc_numanode_attr_s = type { i64, i32, ptr }
%struct.hwloc_cache_attr_s = type { i64, i32, i32, i32, i32 }

@clearinfos = internal global i32 0, align 4
@replaceinfos = internal global i32 0, align 4
@clearuserdata = internal global i32 0, align 4
@stderr = external global ptr, align 8
@infoname = internal global ptr null, align 8
@infovalue = internal global ptr null, align 8
@subtype = internal global ptr null, align 8
@sizevalue = internal global i64 -1, align 8
@miscname = internal global ptr null, align 8
@mavname = internal global ptr null, align 8
@mavvalue = internal global i64 0, align 8
@mavicpuset = internal global ptr null, align 8
@mavid = internal global i32 0, align 4
@maviobj = internal global ptr null, align 8
@.str.125 = private unnamed_addr constant [1 x i8] zeroinitializer, align 1
@.str.126 = private unnamed_addr constant [34 x i8] c"Failed to add memattr value (%s)\0A\00", align 1

; Function Attrs: nounwind uwtable
define internal void @apply_infos(ptr noundef %0) #0 {
  %2 = alloca ptr, align 8
  store ptr %0, ptr %2, align 8, !tbaa !37
  %3 = load i32, ptr @clearinfos, align 4, !tbaa !11
  %4 = icmp ne i32 %3, 0
  br i1 %4, label %5, label %8

5:                                                ; preds = %1
  %6 = load ptr, ptr %2, align 8, !tbaa !37
  %7 = call i32 @hwloc_modify_infos(ptr noundef %6, i64 noundef 8, ptr noundef null, ptr noundef null)
  br label %8

8:                                                ; preds = %5, %1
  %9 = load ptr, ptr @infoname, align 8, !tbaa !4
  %10 = icmp ne ptr %9, null
  br i1 %10, label %11, label %33

11:                                               ; preds = %8
  %12 = load i32, ptr @replaceinfos, align 4, !tbaa !11
  %13 = icmp ne i32 %12, 0
  br i1 %13, label %14, label %27

14:                                               ; preds = %11
  %15 = load ptr, ptr @infovalue, align 8, !tbaa !4
  %16 = icmp ne ptr %15, null
  br i1 %16, label %17, label %22

17:                                               ; preds = %14
  %18 = load ptr, ptr %2, align 8, !tbaa !37
  %19 = load ptr, ptr @infoname, align 8, !tbaa !4
  %20 = load ptr, ptr @infovalue, align 8, !tbaa !4
  %21 = call i32 @hwloc_modify_infos(ptr noundef %18, i64 noundef 4, ptr noundef %19, ptr noundef %20)
  br label %26

22:                                               ; preds = %14
  %23 = load ptr, ptr %2, align 8, !tbaa !37
  %24 = load ptr, ptr @infoname, align 8, !tbaa !4
  %25 = call i32 @hwloc_modify_infos(ptr noundef %23, i64 noundef 8, ptr noundef %24, ptr noundef null)
  br label %26

26:                                               ; preds = %22, %17
  br label %32

27:                                               ; preds = %11
  %28 = load ptr, ptr %2, align 8, !tbaa !37
  %29 = load ptr, ptr @infoname, align 8, !tbaa !4
  %30 = load ptr, ptr @infovalue, align 8, !tbaa !4
  %31 = call i32 @hwloc_modify_infos(ptr noundef %28, i64 noundef 1, ptr noundef %29, ptr noundef %30)
  br label %32

32:                                               ; preds = %27, %26
  br label %33

33:                                               ; preds = %32, %8
  ret void
}

; Function Attrs: inlinehint nounwind uwtable
define internal void @hwloc_utils_userdata_free(ptr noundef %0) #4 {
  %2 = alloca ptr, align 8
  %3 = alloca ptr, align 8
  %4 = alloca ptr, align 8
  store ptr %0, ptr %2, align 8, !tbaa !35
  call void @llvm.lifetime.start.p0(i64 8, ptr %3) #11
  %5 = load ptr, ptr %2, align 8, !tbaa !35
  %6 = getelementptr inbounds nuw %struct.hwloc_obj, ptr %5, i32 0, i32 30
  %7 = load ptr, ptr %6, align 8, !tbaa !57
  store ptr %7, ptr %3, align 8, !tbaa !49
  call void @llvm.lifetime.start.p0(i64 8, ptr %4) #11
  br label %8

8:                                                ; preds = %11, %1
  %9 = load ptr, ptr %3, align 8, !tbaa !49
  %10 = icmp ne ptr %9, null
  br i1 %10, label %11, label %23

11:                                               ; preds = %8
  %12 = load ptr, ptr %3, align 8, !tbaa !49
  %13 = getelementptr inbounds nuw %struct.hwloc_utils_userdata, ptr %12, i32 0, i32 3
  %14 = load ptr, ptr %13, align 8, !tbaa !56
  store ptr %14, ptr %4, align 8, !tbaa !49
  %15 = load ptr, ptr %3, align 8, !tbaa !49
  %16 = getelementptr inbounds nuw %struct.hwloc_utils_userdata, ptr %15, i32 0, i32 0
  %17 = load ptr, ptr %16, align 8, !tbaa !52
  call void @free(ptr noundef %17) #11
  %18 = load ptr, ptr %3, align 8, !tbaa !49
  %19 = getelementptr inbounds nuw %struct.hwloc_utils_userdata, ptr %18, i32 0, i32 2
  %20 = load ptr, ptr %19, align 8, !tbaa !55
  call void @free(ptr noundef %20) #11
  %21 = load ptr, ptr %3, align 8, !tbaa !49
  call void @free(ptr noundef %21) #11
  %22 = load ptr, ptr %4, align 8, !tbaa !49
  store ptr %22, ptr %3, align 8, !tbaa !49
  br label %8, !llvm.loop !115

23:                                               ; preds = %8
  %24 = load ptr, ptr %2, align 8, !tbaa !35
  %25 = getelementptr inbounds nuw %struct.hwloc_obj, ptr %24, i32 0, i32 30
  store ptr null, ptr %25, align 8, !tbaa !57
  call void @llvm.lifetime.end.p0(i64 8, ptr %4) #11
  call void @llvm.lifetime.end.p0(i64 8, ptr %3) #11
  ret void
}

; Function Attrs: nounwind uwtable
define internal void @apply(ptr noundef %0, ptr noundef %1) #0 {
  %3 = alloca ptr, align 8
  %4 = alloca ptr, align 8
  %5 = alloca %struct.hwloc_location, align 8
  %6 = alloca ptr, align 8
  store ptr %0, ptr %3, align 8, !tbaa !25
  store ptr %1, ptr %4, align 8, !tbaa !35
  %7 = load i32, ptr @clearuserdata, align 4, !tbaa !11
  %8 = icmp ne i32 %7, 0
  br i1 %8, label %9, label %11

9:                                                ; preds = %2
  %10 = load ptr, ptr %4, align 8, !tbaa !35
  call void @hwloc_utils_userdata_free(ptr noundef %10)
  br label %11

11:                                               ; preds = %9, %2
  %12 = load ptr, ptr @infoname, align 8, !tbaa !4
  %13 = icmp ne ptr %12, null
  br i1 %13, label %17, label %14

14:                                               ; preds = %11
  %15 = load i32, ptr @clearinfos, align 4, !tbaa !11
  %16 = icmp ne i32 %15, 0
  br i1 %16, label %17, label %20

17:                                               ; preds = %14, %11
  %18 = load ptr, ptr %4, align 8, !tbaa !35
  %19 = getelementptr inbounds nuw %struct.hwloc_obj, ptr %18, i32 0, i32 29
  call void @apply_infos(ptr noundef %19)
  br label %20

20:                                               ; preds = %17, %14
  %21 = load ptr, ptr @subtype, align 8, !tbaa !4
  %22 = icmp ne ptr %21, null
  br i1 %22, label %23, label %45

23:                                               ; preds = %20
  %24 = load ptr, ptr %4, align 8, !tbaa !35
  %25 = getelementptr inbounds nuw %struct.hwloc_obj, ptr %24, i32 0, i32 1
  %26 = load ptr, ptr %25, align 8, !tbaa !76
  %27 = icmp ne ptr %26, null
  br i1 %27, label %28, label %32

28:                                               ; preds = %23
  %29 = load ptr, ptr %4, align 8, !tbaa !35
  %30 = getelementptr inbounds nuw %struct.hwloc_obj, ptr %29, i32 0, i32 1
  %31 = load ptr, ptr %30, align 8, !tbaa !76
  call void @free(ptr noundef %31) #11
  br label %32

32:                                               ; preds = %28, %23
  %33 = load ptr, ptr @subtype, align 8, !tbaa !4
  %34 = call i32 @strcmp(ptr noundef %33, ptr noundef @.str.125) #12
  %35 = icmp ne i32 %34, 0
  br i1 %35, label %39, label %36

36:                                               ; preds = %32
  %37 = load ptr, ptr %4, align 8, !tbaa !35
  %38 = getelementptr inbounds nuw %struct.hwloc_obj, ptr %37, i32 0, i32 1
  store ptr null, ptr %38, align 8, !tbaa !76
  br label %44

39:                                               ; preds = %32
  %40 = load ptr, ptr @subtype, align 8, !tbaa !4
  %41 = call noalias ptr @strdup(ptr noundef %40) #11
  %42 = load ptr, ptr %4, align 8, !tbaa !35
  %43 = getelementptr inbounds nuw %struct.hwloc_obj, ptr %42, i32 0, i32 1
  store ptr %41, ptr %43, align 8, !tbaa !76
  br label %44

44:                                               ; preds = %39, %36
  br label %45

45:                                               ; preds = %44, %20
  %46 = load i64, ptr @sizevalue, align 8, !tbaa !19
  %47 = icmp ne i64 %46, -1
  br i1 %47, label %48, label %78

48:                                               ; preds = %45
  %49 = load ptr, ptr %4, align 8, !tbaa !35
  %50 = getelementptr inbounds nuw %struct.hwloc_obj, ptr %49, i32 0, i32 0
  %51 = load i32, ptr %50, align 8, !tbaa !75
  %52 = icmp eq i32 %51, 14
  br i1 %52, label %53, label %59

53:                                               ; preds = %48
  %54 = load i64, ptr @sizevalue, align 8, !tbaa !19
  %55 = load ptr, ptr %4, align 8, !tbaa !35
  %56 = getelementptr inbounds nuw %struct.hwloc_obj, ptr %55, i32 0, i32 5
  %57 = load ptr, ptr %56, align 8, !tbaa !83
  %58 = getelementptr inbounds nuw %struct.hwloc_numanode_attr_s, ptr %57, i32 0, i32 0
  store i64 %54, ptr %58, align 8, !tbaa !15
  br label %77

59:                                               ; preds = %48
  %60 = load ptr, ptr %4, align 8, !tbaa !35
  %61 = getelementptr inbounds nuw %struct.hwloc_obj, ptr %60, i32 0, i32 0
  %62 = load i32, ptr %61, align 8, !tbaa !75
  %63 = call i32 @hwloc_obj_type_is_cache(i32 noundef %62)
  %64 = icmp ne i32 %63, 0
  br i1 %64, label %70, label %65

65:                                               ; preds = %59
  %66 = load ptr, ptr %4, align 8, !tbaa !35
  %67 = getelementptr inbounds nuw %struct.hwloc_obj, ptr %66, i32 0, i32 0
  %68 = load i32, ptr %67, align 8, !tbaa !75
  %69 = icmp eq i32 %68, 15
  br i1 %69, label %70, label %76

70:                                               ; preds = %65, %59
  %71 = load i64, ptr @sizevalue, align 8, !tbaa !19
  %72 = load ptr, ptr %4, align 8, !tbaa !35
  %73 = getelementptr inbounds nuw %struct.hwloc_obj, ptr %72, i32 0, i32 5
  %74 = load ptr, ptr %73, align 8, !tbaa !83
  %75 = getelementptr inbounds nuw %struct.hwloc_cache_attr_s, ptr %74, i32 0, i32 0
  store i64 %71, ptr %75, align 8, !tbaa !15
  br label %76

76:                                               ; preds = %70, %65
  br label %77

77:                                               ; preds = %76, %53
  br label %78

78:                                               ; preds = %77, %45
  %79 = load ptr, ptr @miscname, align 8, !tbaa !4
  %80 = icmp ne ptr %79, null
  br i1 %80, label %81, label %86

81:                                               ; preds = %78
  %82 = load ptr, ptr %3, align 8, !tbaa !25
  %83 = load ptr, ptr %4, align 8, !tbaa !35
  %84 = load ptr, ptr @miscname, align 8, !tbaa !4
  %85 = call ptr @hwloc_topology_insert_misc_object(ptr noundef %82, ptr noundef %83, ptr noundef %84)
  br label %86

86:                                               ; preds = %81, %78
  %87 = load ptr, ptr @mavname, align 8, !tbaa !4
  %88 = icmp ne ptr %87, null
  br i1 %88, label %89, label %119

89:                                               ; preds = %86
  call void @llvm.lifetime.start.p0(i64 16, ptr %5) #11
  call void @llvm.lifetime.start.p0(i64 8, ptr %6) #11
  store ptr null, ptr %6, align 8, !tbaa !84
  %90 = load ptr, ptr @maviobj, align 8, !tbaa !35
  %91 = icmp ne ptr %90, null
  br i1 %91, label %92, label %96

92:                                               ; preds = %89
  %93 = getelementptr inbounds nuw %struct.hwloc_location, ptr %5, i32 0, i32 0
  store i32 0, ptr %93, align 8, !tbaa !86
  %94 = load ptr, ptr @maviobj, align 8, !tbaa !35
  %95 = getelementptr inbounds nuw %struct.hwloc_location, ptr %5, i32 0, i32 1
  store ptr %94, ptr %95, align 8, !tbaa !15
  store ptr %5, ptr %6, align 8, !tbaa !84
  br label %104

96:                                               ; preds = %89
  %97 = load ptr, ptr @mavicpuset, align 8, !tbaa !23
  %98 = icmp ne ptr %97, null
  br i1 %98, label %99, label %103

99:                                               ; preds = %96
  %100 = getelementptr inbounds nuw %struct.hwloc_location, ptr %5, i32 0, i32 0
  store i32 1, ptr %100, align 8, !tbaa !86
  %101 = load ptr, ptr @mavicpuset, align 8, !tbaa !23
  %102 = getelementptr inbounds nuw %struct.hwloc_location, ptr %5, i32 0, i32 1
  store ptr %101, ptr %102, align 8, !tbaa !15
  store ptr %5, ptr %6, align 8, !tbaa !84
  br label %103

103:                                              ; preds = %99, %96
  br label %104

104:                                              ; preds = %103, %92
  %105 = load ptr, ptr %3, align 8, !tbaa !25
  %106 = load i32, ptr @mavid, align 4, !tbaa !11
  %107 = load ptr, ptr %4, align 8, !tbaa !35
  %108 = load ptr, ptr %6, align 8, !tbaa !84
  %109 = load i64, ptr @mavvalue, align 8, !tbaa !21
  %110 = call i32 @hwloc_memattr_set_value(ptr noundef %105, i32 noundef %106, ptr noundef %107, ptr noundef %108, i64 noundef 0, i64 noundef %109)
  %111 = icmp slt i32 %110, 0
  br i1 %111, label %112, label %118

112:                                              ; preds = %104
  %113 = load ptr, ptr @stderr, align 8, !tbaa !9
  %114 = call ptr @__errno_location() #14
  %115 = load i32, ptr %114, align 4, !tbaa !11
  %116 = call ptr @strerror(i32 noundef %115) #11
  %117 = call i32 (ptr, ptr, ...) @fprintf(ptr noundef %113, ptr noundef @.str.126, ptr noundef %116) #11
  br label %118

118:                                              ; preds = %112, %104
  call void @llvm.lifetime.end.p0(i64 8, ptr %6) #11
  call void @llvm.lifetime.end.p0(i64 16, ptr %5) #11
  br label %119

119:                                              ; preds = %118, %86
  ret void
}