; Function Attrs: nounwind uwtable
define internal fastcc void @apply(ptr noundef %0, ptr noundef %1) unnamed_addr #13 {
  %3 = alloca %struct.hwloc_location, align 8
  %.b21 = load i1, ptr @clearuserdata, align 4
  br i1 %.b21, label %4, label %12

4:                                                ; preds = %2
  %5 = getelementptr inbounds nuw i8, ptr %1, i64 232
  %6 = load ptr, ptr %5, align 8, !tbaa !77
  %.not8.i = icmp eq ptr %6, null
  br i1 %.not8.i, label %hwloc_utils_userdata_free.exit, label %.lr.ph.i

.lr.ph.i:                                         ; preds = %4, %.lr.ph.i
  %.09.i = phi ptr [ %8, %.lr.ph.i ], [ %6, %4 ]
  %7 = getelementptr inbounds nuw i8, ptr %.09.i, i64 24
  %8 = load ptr, ptr %7, align 8, !tbaa !51
  %9 = load ptr, ptr %.09.i, align 8, !tbaa !47
  tail call void @free(ptr noundef %9) #27
  %10 = getelementptr inbounds nuw i8, ptr %.09.i, i64 16
  %11 = load ptr, ptr %10, align 8, !tbaa !50
  tail call void @free(ptr noundef %11) #27
  tail call void @free(ptr noundef nonnull %.09.i) #27
  %.not.i = icmp eq ptr %8, null
  br i1 %.not.i, label %hwloc_utils_userdata_free.exit, label %.lr.ph.i, !llvm.loop !78

hwloc_utils_userdata_free.exit:                   ; preds = %.lr.ph.i, %4
  store ptr null, ptr %5, align 8, !tbaa !77
  br label %12

12:                                               ; preds = %hwloc_utils_userdata_free.exit, %2
  %13 = load ptr, ptr @infoname, align 8, !tbaa !4
  %14 = icmp ne ptr %13, null
  %.b = load i1, ptr @clearinfos, align 4
  %or.cond = select i1 %14, i1 true, i1 %.b
  br i1 %or.cond, label %15, label %apply_infos.exit

15:                                               ; preds = %12
  %16 = getelementptr inbounds nuw i8, ptr %1, i64 216
  br i1 %.b, label %17, label %19

17:                                               ; preds = %15
  %18 = tail call i32 @hwloc_modify_infos(ptr noundef nonnull %16, i64 noundef 8, ptr noundef null, ptr noundef null) #27
  %.pre = load ptr, ptr @infoname, align 8, !tbaa !4
  br label %19

19:                                               ; preds = %17, %15
  %20 = phi ptr [ %.pre, %17 ], [ %13, %15 ]
  %.not.i30 = icmp eq ptr %20, null
  br i1 %.not.i30, label %apply_infos.exit, label %21

21:                                               ; preds = %19
  %.b5.i = load i1, ptr @replaceinfos, align 4
  %22 = load ptr, ptr @infovalue, align 8, !tbaa !4
  br i1 %.b5.i, label %23, label %28

23:                                               ; preds = %21
  %.not6.i = icmp eq ptr %22, null
  br i1 %.not6.i, label %26, label %24

24:                                               ; preds = %23
  %25 = tail call i32 @hwloc_modify_infos(ptr noundef nonnull %16, i64 noundef 4, ptr noundef nonnull %20, ptr noundef nonnull %22) #27
  br label %apply_infos.exit

26:                                               ; preds = %23
  %27 = tail call i32 @hwloc_modify_infos(ptr noundef nonnull %16, i64 noundef 8, ptr noundef nonnull %20, ptr noundef null) #27
  br label %apply_infos.exit

28:                                               ; preds = %21
  %29 = tail call i32 @hwloc_modify_infos(ptr noundef nonnull %16, i64 noundef 1, ptr noundef nonnull %20, ptr noundef %22) #27
  br label %apply_infos.exit

apply_infos.exit:                                 ; preds = %28, %26, %24, %19, %12
  %30 = load ptr, ptr @subtype, align 8, !tbaa !4
  %.not = icmp eq ptr %30, null
  br i1 %.not, label %38, label %31

31:                                               ; preds = %apply_infos.exit
  %32 = getelementptr inbounds nuw i8, ptr %1, i64 8
  %33 = load ptr, ptr %32, align 8, !tbaa !70
  %.not22 = icmp eq ptr %33, null
  br i1 %.not22, label %35, label %34

34:                                               ; preds = %31
  tail call void @free(ptr noundef nonnull %33) #27
  br label %35

35:                                               ; preds = %34, %31
  %strcmpload = load i8, ptr %30, align 1
  %.not23 = icmp eq i8 %strcmpload, 0
  br i1 %.not23, label %.sink.split, label %36

36:                                               ; preds = %35
  %37 = tail call noalias ptr @strdup(ptr noundef nonnull %30) #27
  br label %.sink.split

.sink.split:                                      ; preds = %35, %36
  %.sink = phi ptr [ %37, %36 ], [ null, %35 ]
  store ptr %.sink, ptr %32, align 8, !tbaa !70
  br label %38

38:                                               ; preds = %.sink.split, %apply_infos.exit
  %39 = load i64, ptr @sizevalue, align 8, !tbaa !15
  %.not24 = icmp eq i64 %39, -1
  br i1 %.not24, label %52, label %40

40:                                               ; preds = %38
  %41 = load i32, ptr %1, align 8, !tbaa !66
  %42 = icmp eq i32 %41, 14
  br i1 %42, label %.sink.split31, label %43

43:                                               ; preds = %40
  %44 = tail call i32 @hwloc_obj_type_is_cache(i32 noundef %41) #27
  %.not25 = icmp eq i32 %44, 0
  br i1 %.not25, label %45, label %48

45:                                               ; preds = %43
  %46 = load i32, ptr %1, align 8, !tbaa !66
  %47 = icmp eq i32 %46, 15
  br i1 %47, label %48, label %52

48:                                               ; preds = %45, %43
  %49 = load i64, ptr @sizevalue, align 8, !tbaa !15
  br label %.sink.split31

.sink.split31:                                    ; preds = %40, %48
  %.sink32 = phi i64 [ %49, %48 ], [ %39, %40 ]
  %50 = getelementptr inbounds nuw i8, ptr %1, i64 40
  %51 = load ptr, ptr %50, align 8, !tbaa !79
  store i64 %.sink32, ptr %51, align 8, !tbaa !11
  br label %52

52:                                               ; preds = %.sink.split31, %45, %38
  %53 = load ptr, ptr @miscname, align 8, !tbaa !4
  %.not26 = icmp eq ptr %53, null
  br i1 %.not26, label %56, label %54

54:                                               ; preds = %52
  %55 = tail call ptr @hwloc_topology_insert_misc_object(ptr noundef %0, ptr noundef %1, ptr noundef nonnull %53) #27
  br label %56

56:                                               ; preds = %54, %52
  %57 = load ptr, ptr @mavname, align 8, !tbaa !4
  %.not27 = icmp eq ptr %57, null
  br i1 %.not27, label %75, label %58

58:                                               ; preds = %56
  call void @llvm.lifetime.start.p0(i64 16, ptr nonnull %3) #27
  %59 = load ptr, ptr @maviobj, align 8, !tbaa !33
  %.not28 = icmp eq ptr %59, null
  br i1 %.not28, label %60, label %.sink.split35

60:                                               ; preds = %58
  %61 = load ptr, ptr @mavicpuset, align 8, !tbaa !19
  %.not29 = icmp eq ptr %61, null
  br i1 %.not29, label %63, label %.sink.split35

.sink.split35:                                    ; preds = %60, %58
  %.sink38 = phi i32 [ 0, %58 ], [ 1, %60 ]
  %.sink36 = phi ptr [ %59, %58 ], [ %61, %60 ]
  store i32 %.sink38, ptr %3, align 8, !tbaa !80
  %62 = getelementptr inbounds nuw i8, ptr %3, i64 8
  store ptr %.sink36, ptr %62, align 8, !tbaa !11
  br label %63

63:                                               ; preds = %.sink.split35, %60
  %.0 = phi ptr [ null, %60 ], [ %3, %.sink.split35 ]
  %64 = load i32, ptr @mavid, align 4, !tbaa !21
  %65 = load i64, ptr @mavvalue, align 8, !tbaa !17
  %66 = call i32 @hwloc_memattr_set_value(ptr noundef %0, i32 noundef %64, ptr noundef %1, ptr noundef %.0, i64 noundef 0, i64 noundef %65) #27
  %67 = icmp slt i32 %66, 0
  br i1 %67, label %68, label %74

68:                                               ; preds = %63
  %69 = load ptr, ptr @stderr, align 8, !tbaa !9
  %70 = tail call ptr @__errno_location() #33
  %71 = load i32, ptr %70, align 4, !tbaa !21
  %72 = call ptr @strerror(i32 noundef %71) #27
  %73 = call i32 (ptr, ptr, ...) @fprintf(ptr noundef %69, ptr noundef nonnull @.str.126, ptr noundef %72) #29
  br label %74

74:                                               ; preds = %68, %63
  call void @llvm.lifetime.end.p0(i64 16, ptr nonnull %3) #27
  br label %75

75:                                               ; preds = %74, %56
  ret void
}